target datalayout = "e-m:e-p270:32:32-p271:32:32-p272:64:64-i64:64-i128:128-f80:128-n8:16:32:64-S128"
target triple = "x86_64-pc-linux-gnu"

%"class.std::basic_string_view" = type { i64, ptr }
%"class.grpc_core::chttp2::TransportFlowControl" = type { ptr, i64, i8, %"class.grpc_core::BdpEstimator", i64, i64, i64, i64, i64, i32, i32 }
%"class.grpc_core::BdpEstimator" = type { i64, i64, %struct.gpr_timespec, %"class.grpc_core::Duration", i32, i32, double, %"class.std::basic_string_view" }
%struct.gpr_timespec = type { i64, i32, i32 }
%"class.grpc_core::Duration" = type { i64 }

; Function Attrs: inlinehint mustprogress nounwind uwtable
define linkonce_odr noundef nonnull align 8 dereferenceable(8) ptr @_ZSt3minIlERKT_S2_S2_(ptr noundef nonnull align 8 dereferenceable(8) %0, ptr noundef nonnull align 8 dereferenceable(8) %1) #10 comdat {
  %3 = alloca ptr, align 8
  %4 = alloca ptr, align 8
  %5 = alloca ptr, align 8
  store ptr %0, ptr %4, align 8, !tbaa !99
  store ptr %1, ptr %5, align 8, !tbaa !99
  %6 = load ptr, ptr %5, align 8, !tbaa !99
  %7 = load i64, ptr %6, align 8, !tbaa !34
  %8 = load ptr, ptr %4, align 8, !tbaa !99
  %9 = load i64, ptr %8, align 8, !tbaa !34
  %10 = icmp slt i64 %7, %9
  br i1 %10, label %11, label %13

11:                                               ; preds = %2
  %12 = load ptr, ptr %5, align 8, !tbaa !99
  store ptr %12, ptr %3, align 8
  br label %15

13:                                               ; preds = %2
  %14 = load ptr, ptr %4, align 8, !tbaa !99
  store ptr %14, ptr %3, align 8
  br label %15

15:                                               ; preds = %13, %11
  %16 = load ptr, ptr %3, align 8
  ret ptr %16
}

; Function Attrs: inlinehint mustprogress nounwind uwtable
define linkonce_odr noundef nonnull align 8 dereferenceable(8) ptr @_ZSt3maxIlERKT_S2_S2_(ptr noundef nonnull align 8 dereferenceable(8) %0, ptr noundef nonnull align 8 dereferenceable(8) %1) #10 comdat {
  %3 = alloca ptr, align 8
  %4 = alloca ptr, align 8
  %5 = alloca ptr, align 8
  store ptr %0, ptr %4, align 8, !tbaa !99
  store ptr %1, ptr %5, align 8, !tbaa !99
  %6 = load ptr, ptr %4, align 8, !tbaa !99
  %7 = load i64, ptr %6, align 8, !tbaa !34
  %8 = load ptr, ptr %5, align 8, !tbaa !99
  %9 = load i64, ptr %8, align 8, !tbaa !34
  %10 = icmp slt i64 %7, %9
  br i1 %10, label %11, label %13

11:                                               ; preds = %2
  %12 = load ptr, ptr %5, align 8, !tbaa !99
  store ptr %12, ptr %3, align 8
  br label %15

13:                                               ; preds = %2
  %14 = load ptr, ptr %4, align 8, !tbaa !99
  store ptr %14, ptr %3, align 8
  br label %15

15:                                               ; preds = %13, %11
  %16 = load ptr, ptr %3, align 8
  ret ptr %16
}

; Function Attrs: mustprogress nounwind uwtable
define linkonce_odr noundef i64 @_ZN9grpc_core5ClampIlEET_S1_S1_S1_(i64 noundef %0, i64 noundef %1, i64 noundef %2) #8 comdat {
  %4 = alloca i64, align 8
  %5 = alloca i64, align 8
  %6 = alloca i64, align 8
  %7 = alloca i64, align 8
  store i64 %0, ptr %5, align 8, !tbaa !34
  store i64 %1, ptr %6, align 8, !tbaa !34
  store i64 %2, ptr %7, align 8, !tbaa !34
  %8 = load i64, ptr %5, align 8, !tbaa !34
  %9 = load i64, ptr %6, align 8, !tbaa !34
  %10 = icmp slt i64 %8, %9
  br i1 %10, label %11, label %13

11:                                               ; preds = %3
  %12 = load i64, ptr %6, align 8, !tbaa !34
  store i64 %12, ptr %4, align 8
  br label %21

13:                                               ; preds = %3
  %14 = load i64, ptr %7, align 8, !tbaa !34
  %15 = load i64, ptr %5, align 8, !tbaa !34
  %16 = icmp slt i64 %14, %15
  br i1 %16, label %17, label %19

17:                                               ; preds = %13
  %18 = load i64, ptr %7, align 8, !tbaa !34
  store i64 %18, ptr %4, align 8
  br label %21

19:                                               ; preds = %13
  %20 = load i64, ptr %5, align 8, !tbaa !34
  store i64 %20, ptr %4, align 8
  br label %21

21:                                               ; preds = %19, %17, %11
  %22 = load i64, ptr %4, align 8
  ret i64 %22
}

; Function Attrs: mustprogress uwtable
define noundef i64 @_ZNK9grpc_core6chttp220TransportFlowControl13target_windowEv(ptr noundef nonnull align 8 dereferenceable(144) %0) #4 align 2 {
  %2 = alloca ptr, align 8
  %3 = alloca i64, align 8
  %4 = alloca i64, align 8
  %5 = alloca i64, align 8
  store ptr %0, ptr %2, align 8, !tbaa !44
  %6 = load ptr, ptr %2, align 8
  call void @llvm.lifetime.start.p0(i64 8, ptr %3) #3
  store i64 2147483647, ptr %3, align 8, !tbaa !34
  call void @llvm.lifetime.start.p0(i64 8, ptr %4) #3
  %7 = getelementptr inbounds nuw %"class.grpc_core::chttp2::TransportFlowControl", ptr %6, i32 0, i32 1
  %8 = load i64, ptr %7, align 8, !tbaa !58
  call void @llvm.lifetime.start.p0(i64 8, ptr %5) #3
  store i64 1, ptr %5, align 8, !tbaa !34
  %9 = getelementptr inbounds nuw %"class.grpc_core::chttp2::TransportFlowControl", ptr %6, i32 0, i32 5
  %10 = call noundef nonnull align 8 dereferenceable(8) ptr @_ZSt3maxIlERKT_S2_S2_(ptr noundef nonnull align 8 dereferenceable(8) %5, ptr noundef nonnull align 8 dereferenceable(8) %9)
  %11 = load i64, ptr %10, align 8, !tbaa !34
  %12 = add nsw i64 %8, %11
  store i64 %12, ptr %4, align 8, !tbaa !34
  %13 = call noundef nonnull align 8 dereferenceable(8) ptr @_ZSt3minIlERKT_S2_S2_(ptr noundef nonnull align 8 dereferenceable(8) %3, ptr noundef nonnull align 8 dereferenceable(8) %4)
  %14 = load i64, ptr %13, align 8, !tbaa !34
  %15 = trunc i64 %14 to i32
  %16 = zext i32 %15 to i64
  call void @llvm.lifetime.end.p0(i64 8, ptr %5) #3
  call void @llvm.lifetime.end.p0(i64 8, ptr %4) #3
  call void @llvm.lifetime.end.p0(i64 8, ptr %3) #3
  ret i64 %16
}

; Function Attrs: mustprogress uwtable
define noundef i32 @_ZNK9grpc_core6chttp220TransportFlowControl19DesiredAnnounceSizeEb(ptr noundef nonnull align 8 dereferenceable(144) %0, i1 noundef zeroext %1) #4 align 2 {
  %3 = alloca i32, align 4
  %4 = alloca ptr, align 8
  %5 = alloca i8, align 1
  %6 = alloca i32, align 4
  %7 = alloca i32, align 4
  store ptr %0, ptr %4, align 8, !tbaa !44
  %8 = zext i1 %1 to i8
  store i8 %8, ptr %5, align 1, !tbaa !46
  %9 = load ptr, ptr %4, align 8
  call void @llvm.lifetime.start.p0(i64 4, ptr %6) #3
  %10 = call noundef i64 @_ZNK9grpc_core6chttp220TransportFlowControl13target_windowEv(ptr noundef nonnull align 8 dereferenceable(144) %9)
  %11 = trunc i64 %10 to i32
  store i32 %11, ptr %6, align 4, !tbaa !30
  %12 = load i8, ptr %5, align 1, !tbaa !46, !range !59, !noundef !60
  %13 = trunc i8 %12 to i1
  br i1 %13, label %21, label %14

14:                                               ; preds = %2
  %15 = getelementptr inbounds nuw %"class.grpc_core::chttp2::TransportFlowControl", ptr %9, i32 0, i32 8
  %16 = load i64, ptr %15, align 8, !tbaa !66
  %17 = load i32, ptr %6, align 4, !tbaa !30
  %18 = udiv i32 %17, 2
  %19 = zext i32 %18 to i64
  %20 = icmp sle i64 %16, %19
  br i1 %20, label %21, label %35

21:                                               ; preds = %14, %2
  %22 = getelementptr inbounds nuw %"class.grpc_core::chttp2::TransportFlowControl", ptr %9, i32 0, i32 8
  %23 = load i64, ptr %22, align 8, !tbaa !66
  %24 = load i32, ptr %6, align 4, !tbaa !30
  %25 = zext i32 %24 to i64
  %26 = icmp ne i64 %23, %25
  br i1 %26, label %27, label %35

27:                                               ; preds = %21
  %28 = load i32, ptr %6, align 4, !tbaa !30
  %29 = zext i32 %28 to i64
  %30 = getelementptr inbounds nuw %"class.grpc_core::chttp2::TransportFlowControl", ptr %9, i32 0, i32 8
  %31 = load i64, ptr %30, align 8, !tbaa !66
  %32 = sub nsw i64 %29, %31
  %33 = call noundef i64 @_ZN9grpc_core5ClampIlEET_S1_S1_S1_(i64 noundef %32, i64 noundef 0, i64 noundef 2147483647)
  %34 = trunc i64 %33 to i32
  store i32 %34, ptr %3, align 4
  store i32 1, ptr %7, align 4
  br label %36

35:                                               ; preds = %21, %14
  store i32 0, ptr %3, align 4
  store i32 1, ptr %7, align 4
  br label %36

36:                                               ; preds = %35, %27
  call void @llvm.lifetime.end.p0(i64 4, ptr %6) #3
  %37 = load i32, ptr %3, align 4
  ret i32 %37
}