; Function Attrs: mustprogress nofree norecurse nosync nounwind willreturn memory(argmem: read) uwtable
define noundef range(i32 0, -2147483648) i32 @_ZNK9grpc_core6chttp220TransportFlowControl19DesiredAnnounceSizeEb(ptr noundef nonnull readonly align 8 captures(none) dereferenceable(144) %0, i1 noundef zeroext %1) local_unnamed_addr #8 align 2 {
  %3 = getelementptr inbounds nuw i8, ptr %0, i64 8
  %4 = load i64, ptr %3, align 8, !tbaa !58
  %5 = getelementptr inbounds nuw i8, ptr %0, i64 104
  %6 = load i64, ptr %5, align 8, !tbaa !67
  %.sroa.speculated.i = tail call i64 @llvm.smax.i64(i64 %6, i64 1)
  %7 = add nsw i64 %.sroa.speculated.i, %4
  %.sroa.speculated4.i = tail call i64 @llvm.smin.i64(i64 %7, i64 2147483647)
  %8 = and i64 %.sroa.speculated4.i, 4294967295
  %.phi.trans.insert = getelementptr inbounds nuw i8, ptr %0, i64 128
  %.pre = load i64, ptr %.phi.trans.insert, align 8, !tbaa !64
  %.not8 = xor i1 %1, true
  %9 = lshr i64 %8, 1
  %.not = icmp sgt i64 %.pre, %9
  %or.cond = select i1 %.not8, i1 %.not, i1 false
  %.not7 = icmp eq i64 %.pre, %8
  %or.cond9 = select i1 %or.cond, i1 true, i1 %.not7
  br i1 %or.cond9, label %13, label %10

10:                                               ; preds = %2
  %11 = sub nsw i64 %8, %.pre
  %..i = tail call i64 @llvm.smin.i64(i64 %11, i64 2147483647)
  %.0.i = tail call i64 @llvm.smax.i64(i64 %..i, i64 0)
  %12 = trunc nuw nsw i64 %.0.i to i32
  br label %13

13:                                               ; preds = %2, %10
  %.0 = phi i32 [ %12, %10 ], [ 0, %2 ]
  ret i32 %.0
}